target datalayout = "e-m:e-p270:32:32-p271:32:32-p272:64:64-i64:64-i128:128-f80:128-n8:16:32:64-S128"
target triple = "x86_64-pc-linux-gnu"

%struct.expert_field = type { i32, i32 }

@ei_ansi_637_unexpected_length = internal global %struct.expert_field zeroinitializer, align 4
@.str.347 = private unnamed_addr constant [10 x i8] c"%u (%02x)\00", align 1
@.str.348 = private unnamed_addr constant [8 x i8] c"Invalid\00", align 1
@.str.349 = private unnamed_addr constant [10 x i8] c"%s (%02x)\00", align 1
@.str.350 = private unnamed_addr constant [3 x i8] c"%u\00", align 1

; Function Attrs: null_pointer_is_valid sspstrong uwtable
define internal void @tele_param_timestamp(ptr noundef %0, ptr noundef %1, ptr noundef %2, i32 noundef %3, i32 noundef %4, i32 noundef %5, i32 noundef %6, i32 noundef %7, i32 noundef %8, i32 noundef %9, i32 noundef %10) #0 {
  %12 = alloca ptr, align 8
  %13 = alloca ptr, align 8
  %14 = alloca ptr, align 8
  %15 = alloca i32, align 4
  %16 = alloca i32, align 4
  %17 = alloca i32, align 4
  %18 = alloca i32, align 4
  %19 = alloca i32, align 4
  %20 = alloca i32, align 4
  %21 = alloca i32, align 4
  %22 = alloca i32, align 4
  %23 = alloca i8, align 1
  %24 = alloca i16, align 2
  %25 = alloca ptr, align 8
  %26 = alloca i32, align 4
  store ptr %0, ptr %12, align 8
  store ptr %1, ptr %13, align 8
  store ptr %2, ptr %14, align 8
  store i32 %3, ptr %15, align 4
  store i32 %4, ptr %16, align 4
  store i32 %5, ptr %17, align 4
  store i32 %6, ptr %18, align 4
  store i32 %7, ptr %19, align 4
  store i32 %8, ptr %20, align 4
  store i32 %9, ptr %21, align 4
  store i32 %10, ptr %22, align 4
  call void @llvm.lifetime.start.p0(i64 1, ptr %23) #7
  call void @llvm.lifetime.start.p0(i64 2, ptr %24) #7
  call void @llvm.lifetime.start.p0(i64 8, ptr %25) #7
  store ptr null, ptr %25, align 8
  %27 = load i32, ptr %15, align 4
  %28 = icmp ne i32 %27, 6
  br i1 %28, label %29, label %36

29:                                               ; preds = %11
  %30 = load ptr, ptr %14, align 8
  %31 = load ptr, ptr %13, align 8
  %32 = load ptr, ptr %12, align 8
  %33 = load i32, ptr %16, align 4
  %34 = load i32, ptr %15, align 4
  %35 = call ptr @proto_tree_add_expert(ptr noundef %30, ptr noundef %31, ptr noundef @ei_ansi_637_unexpected_length, ptr noundef %32, i32 noundef %33, i32 noundef %34)
  store i32 1, ptr %26, align 4
  br label %194

36:                                               ; preds = %11
  %37 = load ptr, ptr %12, align 8
  %38 = load i32, ptr %16, align 4
  %39 = call zeroext i8 @tvb_get_uint8(ptr noundef %37, i32 noundef %38)
  store i8 %39, ptr %23, align 1
  %40 = load i8, ptr %23, align 1
  %41 = zext i8 %40 to i32
  %42 = and i32 %41, 240
  %43 = ashr i32 %42, 4
  %44 = mul i32 %43, 10
  %45 = load i8, ptr %23, align 1
  %46 = zext i8 %45 to i32
  %47 = and i32 %46, 15
  %48 = add i32 %44, %47
  %49 = trunc i32 %48 to i16
  store i16 %49, ptr %24, align 2
  %50 = load i16, ptr %24, align 2
  %51 = zext i16 %50 to i32
  %52 = icmp slt i32 %51, 96
  %53 = select i1 %52, i32 2000, i32 1900
  %54 = load i16, ptr %24, align 2
  %55 = zext i16 %54 to i32
  %56 = add i32 %55, %53
  %57 = trunc i32 %56 to i16
  store i16 %57, ptr %24, align 2
  %58 = load ptr, ptr %14, align 8
  %59 = load i32, ptr %17, align 4
  %60 = load ptr, ptr %12, align 8
  %61 = load i32, ptr %16, align 4
  %62 = load i8, ptr %23, align 1
  %63 = zext i8 %62 to i32
  %64 = load i16, ptr %24, align 2
  %65 = zext i16 %64 to i32
  %66 = load i8, ptr %23, align 1
  %67 = zext i8 %66 to i32
  %68 = call ptr (ptr, i32, ptr, i32, i32, i32, ptr, ...) @proto_tree_add_uint_format_value(ptr noundef %58, i32 noundef %59, ptr noundef %60, i32 noundef %61, i32 noundef 1, i32 noundef %63, ptr noundef @.str.347, i32 noundef %65, i32 noundef %67)
  %69 = load i32, ptr %16, align 4
  %70 = add i32 %69, 1
  store i32 %70, ptr %16, align 4
  %71 = load ptr, ptr %12, align 8
  %72 = load i32, ptr %16, align 4
  %73 = call zeroext i8 @tvb_get_uint8(ptr noundef %71, i32 noundef %72)
  store i8 %73, ptr %23, align 1
  %74 = load i8, ptr %23, align 1
  %75 = zext i8 %74 to i32
  %76 = and i32 %75, 240
  %77 = ashr i32 %76, 4
  %78 = mul i32 %77, 10
  %79 = load i8, ptr %23, align 1
  %80 = zext i8 %79 to i32
  %81 = and i32 %80, 15
  %82 = add i32 %78, %81
  %83 = sub i32 %82, 1
  %84 = trunc i32 %83 to i16
  store i16 %84, ptr %24, align 2
  %85 = load i16, ptr %24, align 2
  %86 = zext i16 %85 to i32
  %87 = call ptr @val_to_str_const(i32 noundef %86, ptr noundef @ansi_tele_month_strings, ptr noundef @.str.348)
  store ptr %87, ptr %25, align 8
  %88 = load ptr, ptr %14, align 8
  %89 = load i32, ptr %18, align 4
  %90 = load ptr, ptr %12, align 8
  %91 = load i32, ptr %16, align 4
  %92 = load i8, ptr %23, align 1
  %93 = zext i8 %92 to i32
  %94 = load ptr, ptr %25, align 8
  %95 = load i8, ptr %23, align 1
  %96 = zext i8 %95 to i32
  %97 = call ptr (ptr, i32, ptr, i32, i32, i32, ptr, ...) @proto_tree_add_uint_format_value(ptr noundef %88, i32 noundef %89, ptr noundef %90, i32 noundef %91, i32 noundef 1, i32 noundef %93, ptr noundef @.str.349, ptr noundef %94, i32 noundef %96)
  %98 = load i32, ptr %16, align 4
  %99 = add i32 %98, 1
  store i32 %99, ptr %16, align 4
  %100 = load ptr, ptr %12, align 8
  %101 = load i32, ptr %16, align 4
  %102 = call zeroext i8 @tvb_get_uint8(ptr noundef %100, i32 noundef %101)
  store i8 %102, ptr %23, align 1
  %103 = load i8, ptr %23, align 1
  %104 = zext i8 %103 to i32
  %105 = and i32 %104, 240
  %106 = ashr i32 %105, 4
  %107 = mul i32 %106, 10
  %108 = load i8, ptr %23, align 1
  %109 = zext i8 %108 to i32
  %110 = and i32 %109, 15
  %111 = add i32 %107, %110
  %112 = trunc i32 %111 to i16
  store i16 %112, ptr %24, align 2
  %113 = load ptr, ptr %14, align 8
  %114 = load i32, ptr %19, align 4
  %115 = load ptr, ptr %12, align 8
  %116 = load i32, ptr %16, align 4
  %117 = load i8, ptr %23, align 1
  %118 = zext i8 %117 to i32
  %119 = load i16, ptr %24, align 2
  %120 = zext i16 %119 to i32
  %121 = call ptr (ptr, i32, ptr, i32, i32, i32, ptr, ...) @proto_tree_add_uint_format_value(ptr noundef %113, i32 noundef %114, ptr noundef %115, i32 noundef %116, i32 noundef 1, i32 noundef %118, ptr noundef @.str.350, i32 noundef %120)
  %122 = load i32, ptr %16, align 4
  %123 = add i32 %122, 1
  store i32 %123, ptr %16, align 4
  %124 = load ptr, ptr %12, align 8
  %125 = load i32, ptr %16, align 4
  %126 = call zeroext i8 @tvb_get_uint8(ptr noundef %124, i32 noundef %125)
  store i8 %126, ptr %23, align 1
  %127 = load i8, ptr %23, align 1
  %128 = zext i8 %127 to i32
  %129 = and i32 %128, 240
  %130 = ashr i32 %129, 4
  %131 = mul i32 %130, 10
  %132 = load i8, ptr %23, align 1
  %133 = zext i8 %132 to i32
  %134 = and i32 %133, 15
  %135 = add i32 %131, %134
  %136 = trunc i32 %135 to i16
  store i16 %136, ptr %24, align 2
  %137 = load ptr, ptr %14, align 8
  %138 = load i32, ptr %20, align 4
  %139 = load ptr, ptr %12, align 8
  %140 = load i32, ptr %16, align 4
  %141 = load i8, ptr %23, align 1
  %142 = zext i8 %141 to i32
  %143 = load i16, ptr %24, align 2
  %144 = zext i16 %143 to i32
  %145 = call ptr (ptr, i32, ptr, i32, i32, i32, ptr, ...) @proto_tree_add_uint_format_value(ptr noundef %137, i32 noundef %138, ptr noundef %139, i32 noundef %140, i32 noundef 1, i32 noundef %142, ptr noundef @.str.350, i32 noundef %144)
  %146 = load i32, ptr %16, align 4
  %147 = add i32 %146, 1
  store i32 %147, ptr %16, align 4
  %148 = load ptr, ptr %12, align 8
  %149 = load i32, ptr %16, align 4
  %150 = call zeroext i8 @tvb_get_uint8(ptr noundef %148, i32 noundef %149)
  store i8 %150, ptr %23, align 1
  %151 = load i8, ptr %23, align 1
  %152 = zext i8 %151 to i32
  %153 = and i32 %152, 240
  %154 = ashr i32 %153, 4
  %155 = mul i32 %154, 10
  %156 = load i8, ptr %23, align 1
  %157 = zext i8 %156 to i32
  %158 = and i32 %157, 15
  %159 = add i32 %155, %158
  %160 = trunc i32 %159 to i16
  store i16 %160, ptr %24, align 2
  %161 = load ptr, ptr %14, align 8
  %162 = load i32, ptr %21, align 4
  %163 = load ptr, ptr %12, align 8
  %164 = load i32, ptr %16, align 4
  %165 = load i8, ptr %23, align 1
  %166 = zext i8 %165 to i32
  %167 = load i16, ptr %24, align 2
  %168 = zext i16 %167 to i32
  %169 = call ptr (ptr, i32, ptr, i32, i32, i32, ptr, ...) @proto_tree_add_uint_format_value(ptr noundef %161, i32 noundef %162, ptr noundef %163, i32 noundef %164, i32 noundef 1, i32 noundef %166, ptr noundef @.str.350, i32 noundef %168)
  %170 = load i32, ptr %16, align 4
  %171 = add i32 %170, 1
  store i32 %171, ptr %16, align 4
  %172 = load ptr, ptr %12, align 8
  %173 = load i32, ptr %16, align 4
  %174 = call zeroext i8 @tvb_get_uint8(ptr noundef %172, i32 noundef %173)
  store i8 %174, ptr %23, align 1
  %175 = load i8, ptr %23, align 1
  %176 = zext i8 %175 to i32
  %177 = and i32 %176, 240
  %178 = ashr i32 %177, 4
  %179 = mul i32 %178, 10
  %180 = load i8, ptr %23, align 1
  %181 = zext i8 %180 to i32
  %182 = and i32 %181, 15
  %183 = add i32 %179, %182
  %184 = trunc i32 %183 to i16
  store i16 %184, ptr %24, align 2
  %185 = load ptr, ptr %14, align 8
  %186 = load i32, ptr %22, align 4
  %187 = load ptr, ptr %12, align 8
  %188 = load i32, ptr %16, align 4
  %189 = load i8, ptr %23, align 1
  %190 = zext i8 %189 to i32
  %191 = load i16, ptr %24, align 2
  %192 = zext i16 %191 to i32
  %193 = call ptr (ptr, i32, ptr, i32, i32, i32, ptr, ...) @proto_tree_add_uint_format_value(ptr noundef %185, i32 noundef %186, ptr noundef %187, i32 noundef %188, i32 noundef 1, i32 noundef %190, ptr noundef @.str.350, i32 noundef %192)
  store i32 0, ptr %26, align 4
  br label %194

194:                                              ; preds = %36, %29
  call void @llvm.lifetime.end.p0(i64 8, ptr %25) #7
  call void @llvm.lifetime.end.p0(i64 2, ptr %24) #7
  call void @llvm.lifetime.end.p0(i64 1, ptr %23) #7
  %195 = load i32, ptr %26, align 4
  switch i32 %195, label %197 [
    i32 0, label %196
    i32 1, label %196
  ]

196:                                              ; preds = %194, %194
  ret void

197:                                              ; preds = %194
  unreachable
}