; Function Attrs: null_pointer_is_valid sspstrong uwtable
define internal fastcc void @tele_param_timestamp(ptr noundef %0, ptr noundef %1, i32 noundef %2, i32 noundef %3, i32 noundef %4, i32 noundef %5, i32 noundef %6, i32 noundef %7, i32 noundef %8) unnamed_addr #0 {
  %10 = tail call zeroext i8 @tvb_get_uint8(ptr noundef %0, i32 noundef %2)
  %11 = zext i8 %10 to i32
  %12 = lshr i32 %11, 4
  %13 = mul nuw nsw i32 %12, 65530
  %14 = add nuw nsw i32 %13, %11
  %15 = and i32 %14, 65504
  %16 = icmp samesign ult i32 %15, 96
  %17 = select i1 %16, i32 2000, i32 1900
  %18 = add nuw nsw i32 %17, %14
  %19 = and i32 %18, 65535
  %20 = tail call ptr (ptr, i32, ptr, i32, i32, i32, ptr, ...) @proto_tree_add_uint_format_value(ptr noundef %1, i32 noundef %3, ptr noundef %0, i32 noundef %2, i32 noundef 1, i32 noundef %11, ptr noundef nonnull @.str.347, i32 noundef %19, i32 noundef %11)
  %21 = add i32 %2, 1
  %22 = tail call zeroext i8 @tvb_get_uint8(ptr noundef %0, i32 noundef %21)
  %23 = zext i8 %22 to i32
  %24 = lshr i32 %23, 4
  %25 = mul nuw nsw i32 %24, 10
  %26 = and i32 %23, 15
  %27 = add nuw nsw i32 %26, 65535
  %28 = add nuw nsw i32 %27, %25
  %29 = and i32 %28, 65535
  %30 = tail call ptr @val_to_str_const(i32 noundef %29, ptr noundef nonnull @ansi_tele_month_strings, ptr noundef nonnull @.str.348)
  %31 = tail call ptr (ptr, i32, ptr, i32, i32, i32, ptr, ...) @proto_tree_add_uint_format_value(ptr noundef %1, i32 noundef %4, ptr noundef %0, i32 noundef %21, i32 noundef 1, i32 noundef %23, ptr noundef nonnull @.str.349, ptr noundef %30, i32 noundef %23)
  %32 = add i32 %2, 2
  %33 = tail call zeroext i8 @tvb_get_uint8(ptr noundef %0, i32 noundef %32)
  %34 = zext i8 %33 to i32
  %35 = lshr i32 %34, 4
  %36 = mul nuw nsw i32 %35, 65530
  %37 = add nuw nsw i32 %36, %34
  %38 = and i32 %37, 65535
  %39 = tail call ptr (ptr, i32, ptr, i32, i32, i32, ptr, ...) @proto_tree_add_uint_format_value(ptr noundef %1, i32 noundef %5, ptr noundef %0, i32 noundef %32, i32 noundef 1, i32 noundef %34, ptr noundef nonnull @.str.350, i32 noundef %38)
  %40 = add i32 %2, 3
  %41 = tail call zeroext i8 @tvb_get_uint8(ptr noundef %0, i32 noundef %40)
  %42 = zext i8 %41 to i32
  %43 = lshr i32 %42, 4
  %44 = mul nuw nsw i32 %43, 65530
  %45 = add nuw nsw i32 %44, %42
  %46 = and i32 %45, 65535
  %47 = tail call ptr (ptr, i32, ptr, i32, i32, i32, ptr, ...) @proto_tree_add_uint_format_value(ptr noundef %1, i32 noundef %6, ptr noundef %0, i32 noundef %40, i32 noundef 1, i32 noundef %42, ptr noundef nonnull @.str.350, i32 noundef %46)
  %48 = add i32 %2, 4
  %49 = tail call zeroext i8 @tvb_get_uint8(ptr noundef %0, i32 noundef %48)
  %50 = zext i8 %49 to i32
  %51 = lshr i32 %50, 4
  %52 = mul nuw nsw i32 %51, 65530
  %53 = add nuw nsw i32 %52, %50
  %54 = and i32 %53, 65535
  %55 = tail call ptr (ptr, i32, ptr, i32, i32, i32, ptr, ...) @proto_tree_add_uint_format_value(ptr noundef %1, i32 noundef %7, ptr noundef %0, i32 noundef %48, i32 noundef 1, i32 noundef %50, ptr noundef nonnull @.str.350, i32 noundef %54)
  %56 = add i32 %2, 5
  %57 = tail call zeroext i8 @tvb_get_uint8(ptr noundef %0, i32 noundef %56)
  %58 = zext i8 %57 to i32
  %59 = lshr i32 %58, 4
  %60 = mul nuw nsw i32 %59, 65530
  %61 = add nuw nsw i32 %60, %58
  %62 = and i32 %61, 65535
  %63 = tail call ptr (ptr, i32, ptr, i32, i32, i32, ptr, ...) @proto_tree_add_uint_format_value(ptr noundef %1, i32 noundef %8, ptr noundef %0, i32 noundef %56, i32 noundef 1, i32 noundef %58, ptr noundef nonnull @.str.350, i32 noundef %62)
  ret void
}